ccopy_reg
_reconstructor
p0
(cgoogle.oauth2.credentials
Credentials
p1
c__builtin__
object
p2
Ntp3
Rp4
(dp5
S'_token_uri'
p6
Vhttps://oauth2.googleapis.com/token
p7
sS'_scopes'
p8
(lp9
S'https://www.googleapis.com/auth/spreadsheets.readonly'
p10
asS'_id_token'
p11
NsS'token'
p12
Vya29.GlzPBtqYOAVRIdwZyF_Qwl5cAKoJNb9r7DffM7ZSZMtIIi6qHkw4lui5UjlHSOY7C0dykeyhvTPLMKIOIbzHONMlleDGdvGk1d_8_q-ZBbtzDz_JxX_4Izwuzsta3Q
p13
sS'_refresh_token'
p14
V1/c5itJRMfuCAyGRZgAwmx0O-xGyGPvIFc_u3xhnFR6S4
p15
sS'_client_secret'
p16
VfgaKXWpgO9-_S5ORsyD7zBf-
p17
sS'_client_id'
p18
V653107978416-3skeffvipvjfnpgrj3im9eqvck3s10du.apps.googleusercontent.com
p19
sS'expiry'
p20
cdatetime
datetime
p21
(S'\x07\xe3\x03\x11\r\x18\x15\x00\xa6\xe7'
p22
tp23
Rp24
sb.